(dp0
I1
I0
sI2
I0
sI3
I0
sI4
I0
sI5
I0
sI6
I0
sI7
I0
sI8
I0
sI9
I0
sI10
I0
sS'vv'
p1
I0
sS'kjhd'
p2
I30
sS'casss'
p3
I40
sS'fuckname'
p4
I20
sS'lk'
p5
I20
sS'ggrr'
p6
I40
sS'forshiva'
p7
I10
sS'zzz'
p8
I60
sS'dd'
p9
I0
sS'sss'
p10
I0
sS'drstrange'
p11
I650
sS'zz'
p12
I0
sS'cagliostro'
p13
I100
sS'caglio'
p14
I460
sS'ss'
p15
I10
sS'l'
p16
I0
sS'q'
p17
I0
sS's'
p18
I10
sS'frrf'
p19
I0
sS'z'
p20
I20
sS'soft'
p21
I50
s.