(dp0
I1
I0
sI2
I0
sI3
I0
sI4
I0
sI5
I0
sI6
I0
sI7
I0
sI8
I0
sI9
I0
sI10
I0
sS'superman'
p1
I650
sS'fleursage'
p2
I300
sS'nageur'
p3
I560
sS'cagliostro'
p4
I490
sS'deucedeuce'
p5
I320
sS'captainooo'
p6
I310
s.