(dp0
S'cagliostro'
p1
I10
sS'patapon'
p2
I40
sS'oscar'
p3
I40
sS'nerval'
p4
I20
sS'alasdin'
p5
I10
sS'neptune'
p6
I70
sS'batavia'
p7
I150
sS'oba'
p8
I130
sS'haarp'
p9
I50
sS'nagareboshi'
p10
I30
sS'dracil'
p11
I190
sS'test'
p12
I10
sS'sstnam'
p13
I160
sS'nickmouk'
p14
I10
sS'boshi'
p15
I40
sS'guro'
p16
I30
sS'plouff'
p17
I40
sS'wicked'
p18
I60
s.