(dp0
I0
(S'nickname: '
p1
I10
tp2
sI1
(S'Neant'
p3
I0
tp4
sI2
(g3
I0
tp5
sI3
(g3
I0
tp6
sI4
(g3
I0
tp7
sI5
(g3
I0
tp8
sI6
(g3
I0
tp9
sI7
(g3
I0
tp10
sI8
(g3
I0
tp11
sI9
(g3
I0
tp12
sI10
(g3
I0
tp13
s.