(dp0
I1
I0
sI2
I0
sI3
I0
sI4
I0
sI5
I0
sI6
I0
sI7
I0
sI8
I0
sI9
I0
sI10
I0
sS'promethe'
p1
I1270
sS'superman'
p2
I650
sS'spirale'
p3
I500
sS'nageur'
p4
I560
sS'abdul'
p5
I1110
sS'atfield'
p6
I220
sS'camel'
p7
I630
sS'deucedeuce'
p8
I320
sS'captainooo'
p9
I310
sS'aladin'
p10
I70
sS'nickomouk'
p11
I10
sS'dede'
p12
I10
sS'cagliostro'
p13
I490
sS'odin'
p14
I490
sS'ss'
p15
I0
sS'j'
p16
I40
sS'fleursage'
p17
I520
sS'persepolis'
p18
I740
s.