(dp0
S''
p1
I0
sI1
I0
sI2
I0
sI3
I0
sI4
I0
sI5
I0
sI6
I0
sI7
I0
sI8
I0
sI9
I0
sI10
I0
sS'promethe'
p2
I1270
sS'superman'
p3
I650
sS'spirale'
p4
I500
sS'nageur'
p5
I560
sS'abdul'
p6
I1110
sS'atfield'
p7
I220
sS'camel'
p8
I630
sS'zd'
p9
I10
sS'deucedeuce'
p10
I320
sS'captainooo'
p11
I310
sS'aladin'
p12
I70
sS'nickomouk'
p13
I10
sS'dede'
p14
I10
sS'cagliostro'
p15
I490
sS'odin'
p16
I490
sS'ss'
p17
I0
sS'j'
p18
I40
sS'fleursage'
p19
I520
sS'persepolis'
p20
I740
s.