(dp0
S'camel'
p1
I530
sS'batavia'
p2
I150
sS'nagareboshi'
p3
I30
sS'boshi'
p4
I40
sS'dagon'
p5
I130
sS'strange'
p6
I10
sS'alasdin'
p7
I10
sS'test'
p8
I10
sS'guro'
p9
I30
sS'wicked'
p10
I60
sS'patapon'
p11
I40
sS'oscar'
p12
I40
sS'haarp'
p13
I50
sS'cagliostro'
p14
I10
sS'nerval'
p15
I20
sS'neptune'
p16
I70
sS'oba'
p17
I130
sS'dracil'
p18
I190
sS'sstnam'
p19
I160
sS'nickmouk'
p20
I10
sS'obscure'
p21
I110
sS'plouff'
p22
I40
s.