(dp0
S'casss'
p1
I40
sI1
I0
sI2
I0
sI3
I0
sI4
I0
sI5
I0
sI6
I0
sI7
I0
sI8
I0
sI9
I0
sI10
I0
sS'caglio'
p2
I0
sS'fuckname'
p3
I20
sS'zzz'
p4
I60
sS'frrf'
p5
I0
sS'kjhd'
p6
I30
sS'ss'
p7
I10
sS'forshiva'
p8
I10
sS'cagliostro'
p9
I10
s.