(dp0
S'wicked'
p1
I60
sS'patapon'
p2
I40
sS'oscar'
p3
I40
sS'nerval'
p4
I20
sS'dracil'
p5
I190
sS'neptune'
p6
I70
sS'batavia'
p7
I150
sS'oba'
p8
I130
sS'haarp'
p9
I50
sS'strange'
p10
I10
sS'nagareboshi'
p11
I30
sS'alasdin'
p12
I10
sS'test'
p13
I10
sS'sstnam'
p14
I160
sS'obscure'
p15
I110
sS'nickmouk'
p16
I10
sS'boshi'
p17
I40
sS'guro'
p18
I30
sS'plouff'
p19
I40
sS'cagliostro'
p20
I10
s.