(dp0
I1
I0
sI2
I0
sI3
I0
sI4
I0
sI5
I0
sI6
I0
sI7
I0
sI8
I0
sI9
I0
sI10
I0
sS'saz'
p1
I0
sS'szs'
p2
I0
sS'lkj'
p3
I0
sS'll'
p4
I0
sS'lol'
p5
I0
sS'Neant'
p6
I0
sS'frzsd'
p7
I0
sS'ze'
p8
I40
sS'hfhfhekl'
p9
I400
sS'ssz'
p10
I40
sS'cagliostro'
p11
I710
sS'sz'
p12
I0
sS'caglio'
p13
I440
sS'ml'
p14
I0
sS'klh'
p15
I0
sS'amanda'
p16
I450
s.