(dp0
I1
I0
sI2
I0
sI3
I0
sI4
I0
sI5
I0
sI6
I0
sI7
I0
sI8
I0
sI9
I0
sI10
I0
sS'promethe'
p1
I1270
sS'superman'
p2
I650
sS'nageur'
p3
I560
sS'abdul'
p4
I1110
sS'camel'
p5
I630
sS'deucedeuce'
p6
I320
sS'captainooo'
p7
I310
sS'aladin'
p8
I70
sS'nickomouk'
p9
I10
sS'odin'
p10
I490
sS'cagliostro'
p11
I490
sS'dede'
p12
I10
sS'fleursage'
p13
I300
sS'persepolis'
p14
I740
s.