(dp0
S'neptune'
p1
I70
sS'batavia'
p2
I150
sS'oba'
p3
I130
sS'haarp'
p4
I50
sS'nagareboshi'
p5
I30
sS'alasdin'
p6
I10
sS'sstnam'
p7
I160
sS'nickmouk'
p8
I10
sS'cagliostro'
p9
I10
sS'guro'
p10
I30
sS'plouff'
p11
I40
sS'wicked'
p12
I60
s.