(dp0
I1
I0
sI2
I0
sI3
I0
sI4
I0
sI5
I0
sI6
I0
sI7
I0
sI8
I0
sI9
I0
sI10
I0
sS'kjhd'
p1
I30
sS'casss'
p2
I40
sS'fuckname'
p3
I20
sS'lk'
p4
I20
sS'ggrr'
p5
I40
sS'forshiva'
p6
I10
sS'zzz'
p7
I60
sS'sss'
p8
I30
sS'cagliostro'
p9
I100
sS'caglio'
p10
I460
sS'ss'
p11
I10
sS'frrf'
p12
I0
s.